; Function Attrs: mustprogress nofree norecurse nosync nounwind willreturn memory(argmem: readwrite) uwtable
define void @_ZN8proxygen2hq13HQStreamCodec17checkFrameAllowedENS0_9FrameTypeE(ptr noalias nocapture writeonly sret(%"class.folly::Optional") align 8 %agg.result, ptr nocapture noundef nonnull readonly align 16 dereferenceable(536) %this, i64 noundef %type) unnamed_addr #7 align 2 personality ptr @__gxx_personality_v0 {
entry:
  %isConnect_ = getelementptr inbounds i8, ptr %this, i64 452
  %0 = load i8, ptr %isConnect_, align 4
  %1 = and i8 %0, 1
  %tobool = icmp ne i8 %1, 0
  %cmp = icmp ne i64 %type, 0
  %or.cond = and i1 %cmp, %tobool
  br i1 %or.cond, label %if.then, label %if.end

if.then:                                          ; preds = %entry
  %hasValue.i.i = getelementptr inbounds i8, ptr %agg.result, i64 8
  store i64 261, ptr %agg.result, align 8
  store i8 1, ptr %hasValue.i.i, align 8
  br label %return

if.end:                                           ; preds = %entry
  switch i64 %type, label %sw.epilog [
    i64 4, label %sw.bb
    i64 7, label %sw.bb
    i64 13, label %sw.bb
    i64 3, label %sw.bb
    i64 984832, label %sw.bb
    i64 984833, label %sw.bb
    i64 63232, label %sw.bb
    i64 63233, label %sw.bb
    i64 65, label %sw.bb
    i64 5, label %sw.bb3
  ]

sw.bb:                                            ; preds = %if.end, %if.end, %if.end, %if.end, %if.end, %if.end, %if.end, %if.end, %if.end
  %hasValue.i.i2 = getelementptr inbounds i8, ptr %agg.result, i64 8
  store i64 261, ptr %agg.result, align 8
  store i8 1, ptr %hasValue.i.i2, align 8
  br label %return

sw.bb3:                                           ; preds = %if.end
  %transportDirection_ = getelementptr inbounds i8, ptr %this, i64 16
  %2 = load i8, ptr %transportDirection_, align 16
  %cmp4 = icmp eq i8 %2, 0
  br i1 %cmp4, label %if.then5, label %sw.epilog

if.then5:                                         ; preds = %sw.bb3
  %hasValue.i.i3 = getelementptr inbounds i8, ptr %agg.result, i64 8
  store i64 261, ptr %agg.result, align 8
  store i8 1, ptr %hasValue.i.i3, align 8
  br label %return

sw.epilog:                                        ; preds = %if.end, %sw.bb3
  store i8 0, ptr %agg.result, align 8
  %hasValue.i.i4 = getelementptr inbounds i8, ptr %agg.result, i64 8
  store i8 0, ptr %hasValue.i.i4, align 8
  br label %return

return:                                           ; preds = %sw.epilog, %if.then5, %sw.bb, %if.then
  ret void
}